target datalayout = "e-m:e-p270:32:32-p271:32:32-p272:64:64-i64:64-i128:128-f80:128-n8:16:32:64-S128"
target triple = "x86_64-pc-linux-gnu"

%"struct.gmx::ExponentialMovingAverageState" = type <{ float, float, i8, [3 x i8] }>
%"class.gmx::ExponentialMovingAverage" = type { %"struct.gmx::ExponentialMovingAverageState", float }

; Function Attrs: mustprogress nounwind uwtable
define void @_ZN3gmx24ExponentialMovingAverage19updateWithDataPointEf(ptr noundef nonnull align 4 dereferenceable(16) %0, float noundef %1) #2 align 2 {
  %3 = alloca ptr, align 8
  %4 = alloca float, align 4
  store ptr %0, ptr %3, align 8
  store float %1, ptr %4, align 4
  %5 = load ptr, ptr %3, align 8
  %6 = load float, ptr %4, align 4
  %7 = getelementptr inbounds %"class.gmx::ExponentialMovingAverage", ptr %5, i32 0, i32 1
  %8 = load float, ptr %7, align 4
  %9 = fsub float 1.000000e+00, %8
  %10 = getelementptr inbounds %"class.gmx::ExponentialMovingAverage", ptr %5, i32 0, i32 0
  %11 = getelementptr inbounds %"struct.gmx::ExponentialMovingAverageState", ptr %10, i32 0, i32 0
  %12 = load float, ptr %11, align 4
  %13 = call float @llvm.fmuladd.f32(float %9, float %12, float %6)
  %14 = getelementptr inbounds %"class.gmx::ExponentialMovingAverage", ptr %5, i32 0, i32 0
  %15 = getelementptr inbounds %"struct.gmx::ExponentialMovingAverageState", ptr %14, i32 0, i32 0
  store float %13, ptr %15, align 4
  %16 = getelementptr inbounds %"class.gmx::ExponentialMovingAverage", ptr %5, i32 0, i32 1
  %17 = load float, ptr %16, align 4
  %18 = fsub float 1.000000e+00, %17
  %19 = getelementptr inbounds %"class.gmx::ExponentialMovingAverage", ptr %5, i32 0, i32 0
  %20 = getelementptr inbounds %"struct.gmx::ExponentialMovingAverageState", ptr %19, i32 0, i32 1
  %21 = load float, ptr %20, align 4
  %22 = call float @llvm.fmuladd.f32(float %18, float %21, float 1.000000e+00)
  %23 = getelementptr inbounds %"class.gmx::ExponentialMovingAverage", ptr %5, i32 0, i32 0
  %24 = getelementptr inbounds %"struct.gmx::ExponentialMovingAverageState", ptr %23, i32 0, i32 1
  store float %22, ptr %24, align 4
  %25 = load float, ptr %4, align 4
  %26 = getelementptr inbounds %"class.gmx::ExponentialMovingAverage", ptr %5, i32 0, i32 0
  %27 = getelementptr inbounds %"struct.gmx::ExponentialMovingAverageState", ptr %26, i32 0, i32 1
  %28 = load float, ptr %27, align 4
  %29 = fmul float %25, %28
  %30 = getelementptr inbounds %"class.gmx::ExponentialMovingAverage", ptr %5, i32 0, i32 0
  %31 = getelementptr inbounds %"struct.gmx::ExponentialMovingAverageState", ptr %30, i32 0, i32 0
  %32 = load float, ptr %31, align 4
  %33 = fcmp ogt float %29, %32
  %34 = getelementptr inbounds %"class.gmx::ExponentialMovingAverage", ptr %5, i32 0, i32 0
  %35 = getelementptr inbounds %"struct.gmx::ExponentialMovingAverageState", ptr %34, i32 0, i32 2
  %36 = zext i1 %33 to i8
  store i8 %36, ptr %35, align 4
  ret void
}