; Function Attrs: mustprogress nofree norecurse nosync nounwind willreturn memory(argmem: readwrite) uwtable
define void @_ZN3gmx24ExponentialMovingAverage19updateWithDataPointEf(ptr nocapture noundef nonnull align 4 dereferenceable(16) %0, float noundef %1) local_unnamed_addr #11 align 2 {
  %3 = getelementptr inbounds i8, ptr %0, i64 12
  %4 = load float, ptr %3, align 4
  %5 = fsub float 1.000000e+00, %4
  %6 = load <2 x float>, ptr %0, align 4
  %7 = insertelement <2 x float> poison, float %5, i64 0
  %8 = shufflevector <2 x float> %7, <2 x float> poison, <2 x i32> zeroinitializer
  %9 = insertelement <2 x float> <float poison, float 1.000000e+00>, float %1, i64 0
  %10 = tail call <2 x float> @llvm.fmuladd.v2f32(<2 x float> %8, <2 x float> %6, <2 x float> %9)
  store <2 x float> %10, ptr %0, align 4
  %11 = extractelement <2 x float> %10, i64 1
  %12 = fmul float %11, %1
  %13 = extractelement <2 x float> %10, i64 0
  %14 = fcmp ogt float %12, %13
  %15 = getelementptr inbounds i8, ptr %0, i64 8
  %16 = zext i1 %14 to i8
  store i8 %16, ptr %15, align 4
  ret void
}